target datalayout = "e-m:e-p270:32:32-p271:32:32-p272:64:64-i64:64-i128:128-f80:128-n8:16:32:64-S128"
target triple = "x86_64-pc-linux-gnu"

%class.OopHandle = type { ptr }
%class.ClassLoaderData = type { %class.WeakHandle, %class.OopHandle, ptr, ptr, i8, i8, i8, i32, i32, %"class.ClassLoaderData::ChunkedHandleList", ptr, ptr, ptr, ptr, ptr, ptr, ptr, ptr, ptr, ptr, ptr, ptr, i64 }
%class.WeakHandle = type { ptr }
%"class.ClassLoaderData::ChunkedHandleList" = type { ptr }
%"struct.Atomic::CmpxchgImpl" = type { i8 }
%"struct.Atomic::PlatformCmpxchg" = type { i8 }

@_ZL11_flushpoint = internal global i8 0, align 1
@_ZL13_class_unload = internal global i8 0, align 1
@_ZN15JfrTraceIdEpoch12_epoch_stateE = external global i8, align 1

; Function Attrs: mustprogress nounwind uwtable
define linkonce_odr hidden noundef zeroext i8 @_ZNK6Atomic15PlatformCmpxchgILm1EEclIhEET_PVS3_S3_S3_19atomic_memory_order(ptr noundef nonnull align 1 dereferenceable(1) %0, ptr noundef %1, i8 noundef zeroext %2, i8 noundef zeroext %3, i32 noundef %4) #1 comdat align 2 {
  %6 = alloca ptr, align 8
  %7 = alloca ptr, align 8
  %8 = alloca i8, align 1
  %9 = alloca i8, align 1
  %10 = alloca i32, align 4
  store ptr %0, ptr %6, align 8
  store ptr %1, ptr %7, align 8
  store i8 %2, ptr %8, align 1
  store i8 %3, ptr %9, align 1
  store i32 %4, ptr %10, align 4
  %11 = load i8, ptr %9, align 1
  %12 = load i8, ptr %8, align 1
  %13 = load ptr, ptr %7, align 8
  %14 = call i8 asm sideeffect "lock cmpxchgb $1,($3)", "={ax},q,{ax},r,~{cc},~{memory},~{dirflag},~{fpsr},~{flags}"(i8 %11, i8 %12, ptr %13) #6, !srcloc !14
  store i8 %14, ptr %9, align 1
  %15 = load i8, ptr %9, align 1
  ret i8 %15
}

; Function Attrs: mustprogress nounwind uwtable
define internal void @_ZL16compiler_barrierv() #1 {
  call void asm sideeffect "", "~{memory},~{dirflag},~{fpsr},~{flags}"() #6, !srcloc !9
  ret void
}

; Function Attrs: mustprogress nounwind uwtable
define linkonce_odr hidden noundef zeroext i8 @_ZNK6Atomic11CmpxchgImplIhhhvEclEPVhhh19atomic_memory_order(ptr noundef nonnull align 1 dereferenceable(1) %0, ptr noundef %1, i8 noundef zeroext %2, i8 noundef zeroext %3, i32 noundef %4) #1 comdat align 2 {
  %6 = alloca ptr, align 8
  %7 = alloca ptr, align 8
  %8 = alloca i8, align 1
  %9 = alloca i8, align 1
  %10 = alloca i32, align 4
  %11 = alloca %"struct.Atomic::PlatformCmpxchg", align 1
  store ptr %0, ptr %6, align 8
  store ptr %1, ptr %7, align 8
  store i8 %2, ptr %8, align 1
  store i8 %3, ptr %9, align 1
  store i32 %4, ptr %10, align 4
  %12 = load ptr, ptr %7, align 8
  %13 = load i8, ptr %8, align 1
  %14 = load i8, ptr %9, align 1
  %15 = load i32, ptr %10, align 4
  %16 = call noundef zeroext i8 @_ZNK6Atomic15PlatformCmpxchgILm1EEclIhEET_PVS3_S3_S3_19atomic_memory_order(ptr noundef nonnull align 1 dereferenceable(1) %11, ptr noundef %12, i8 noundef zeroext %13, i8 noundef zeroext %14, i32 noundef %15)
  ret i8 %16
}

; Function Attrs: mustprogress nounwind uwtable
define linkonce_odr hidden void @_ZN11OrderAccess10storestoreEv() #1 comdat align 2 {
  call void @_ZL16compiler_barrierv()
  ret void
}

; Function Attrs: mustprogress nounwind uwtable
define linkonce_odr hidden noundef zeroext i8 @_Z10traceid_orhh(i8 noundef zeroext %0, i8 noundef zeroext %1) #1 comdat {
  %3 = alloca i8, align 1
  %4 = alloca i8, align 1
  store i8 %0, ptr %3, align 1
  store i8 %1, ptr %4, align 1
  %5 = load i8, ptr %3, align 1
  %6 = zext i8 %5 to i32
  %7 = load i8, ptr %4, align 1
  %8 = zext i8 %7 to i32
  %9 = or i32 %6, %8
  %10 = trunc i32 %9 to i8
  ret i8 %10
}

; Function Attrs: mustprogress nounwind uwtable
define linkonce_odr hidden noundef zeroext i8 @_ZN6Atomic7cmpxchgIhhhEET_PVS1_T0_T1_19atomic_memory_order(ptr noundef %0, i8 noundef zeroext %1, i8 noundef zeroext %2, i32 noundef %3) #1 comdat align 2 {
  %5 = alloca ptr, align 8
  %6 = alloca i8, align 1
  %7 = alloca i8, align 1
  %8 = alloca i32, align 4
  %9 = alloca %"struct.Atomic::CmpxchgImpl", align 1
  store ptr %0, ptr %5, align 8
  store i8 %1, ptr %6, align 1
  store i8 %2, ptr %7, align 1
  store i32 %3, ptr %8, align 4
  %10 = load ptr, ptr %5, align 8
  %11 = load i8, ptr %6, align 1
  %12 = load i8, ptr %7, align 1
  %13 = load i32, ptr %8, align 4
  %14 = call noundef zeroext i8 @_ZNK6Atomic11CmpxchgImplIhhhvEclEPVhhh19atomic_memory_order(ptr noundef nonnull align 1 dereferenceable(1) %9, ptr noundef %10, i8 noundef zeroext %11, i8 noundef zeroext %12, i32 noundef %13)
  ret i8 %14
}

; Function Attrs: mustprogress nounwind uwtable
define linkonce_odr hidden noundef zeroext i8 @_Z11traceid_andhh(i8 noundef zeroext %0, i8 noundef zeroext %1) #1 comdat {
  %3 = alloca i8, align 1
  %4 = alloca i8, align 1
  store i8 %0, ptr %3, align 1
  store i8 %1, ptr %4, align 1
  %5 = load i8, ptr %3, align 1
  %6 = zext i8 %5 to i32
  %7 = load i8, ptr %4, align 1
  %8 = zext i8 %7 to i32
  %9 = and i32 %6, %8
  %10 = trunc i32 %9 to i8
  ret i8 %10
}

; Function Attrs: mustprogress nounwind uwtable
define linkonce_odr hidden noundef ptr @_Z9meta_addrPh(ptr noundef %0) #1 comdat {
  %2 = alloca ptr, align 8
  store ptr %0, ptr %2, align 8
  %3 = load ptr, ptr %2, align 8
  %4 = getelementptr inbounds i8, ptr %3, i64 1
  ret ptr %4
}

; Function Attrs: mustprogress nounwind uwtable
define linkonce_odr hidden void @_Z8set_formIXadL_Z10traceid_orhhEEEvhPh(i8 noundef zeroext %0, ptr noundef %1) #1 comdat {
  %3 = alloca i8, align 1
  %4 = alloca ptr, align 8
  store i8 %0, ptr %3, align 1
  store ptr %1, ptr %4, align 8
  %5 = load i8, ptr %3, align 1
  %6 = load ptr, ptr %4, align 8
  %7 = load i8, ptr %6, align 1
  %8 = call noundef zeroext i8 @_Z10traceid_orhh(i8 noundef zeroext %5, i8 noundef zeroext %7)
  %9 = load ptr, ptr %4, align 8
  store i8 %8, ptr %9, align 1
  call void @_ZN11OrderAccess10storestoreEv()
  ret void
}

; Function Attrs: mustprogress nounwind uwtable
define linkonce_odr hidden void @_Z12set_cas_formIXadL_Z11traceid_andhhEEEvhPVh(i8 noundef zeroext %0, ptr noundef %1) #1 comdat {
  %3 = alloca i8, align 1
  %4 = alloca ptr, align 8
  %5 = alloca i8, align 1
  %6 = alloca i8, align 1
  store i8 %0, ptr %3, align 1
  store ptr %1, ptr %4, align 8
  br label %7

7:                                                ; preds = %29, %2
  %8 = load ptr, ptr %4, align 8
  %9 = load volatile i8, ptr %8, align 1
  store i8 %9, ptr %5, align 1
  %10 = load i8, ptr %3, align 1
  %11 = load i8, ptr %5, align 1
  %12 = call noundef zeroext i8 @_Z11traceid_andhh(i8 noundef zeroext %10, i8 noundef zeroext %11)
  store i8 %12, ptr %6, align 1
  %13 = load i8, ptr %5, align 1
  %14 = zext i8 %13 to i32
  %15 = load i8, ptr %6, align 1
  %16 = zext i8 %15 to i32
  %17 = icmp eq i32 %14, %16
  br i1 %17, label %27, label %18

18:                                               ; preds = %7
  %19 = load ptr, ptr %4, align 8
  %20 = load i8, ptr %5, align 1
  %21 = load i8, ptr %6, align 1
  %22 = call noundef zeroext i8 @_ZN6Atomic7cmpxchgIhhhEET_PVS1_T0_T1_19atomic_memory_order(ptr noundef %19, i8 noundef zeroext %20, i8 noundef zeroext %21, i32 noundef 8)
  %23 = zext i8 %22 to i32
  %24 = load i8, ptr %5, align 1
  %25 = zext i8 %24 to i32
  %26 = icmp eq i32 %23, %25
  br i1 %26, label %27, label %28

27:                                               ; preds = %18, %7
  br label %30

28:                                               ; preds = %18
  br label %29

29:                                               ; preds = %28
  br i1 true, label %7, label %30, !llvm.loop !13

30:                                               ; preds = %29, %27
  ret void
}

; Function Attrs: mustprogress nounwind uwtable
define linkonce_odr hidden noundef ptr @_Z9meta_addrPm(ptr noundef %0) #1 comdat {
  %2 = alloca ptr, align 8
  store ptr %0, ptr %2, align 8
  %3 = load ptr, ptr %2, align 8
  %4 = call noundef ptr @_Z9meta_addrPh(ptr noundef %3)
  ret ptr %4
}

; Function Attrs: mustprogress nounwind uwtable
define linkonce_odr hidden noundef ptr @_ZNK15ClassLoaderData13trace_id_addrEv(ptr noundef nonnull align 8 dereferenceable(160) %0) #1 comdat align 2 {
  %2 = alloca ptr, align 8
  store ptr %0, ptr %2, align 8
  %3 = load ptr, ptr %2, align 8
  %4 = getelementptr inbounds %class.ClassLoaderData, ptr %3, i32 0, i32 22
  ret ptr %4
}

; Function Attrs: mustprogress nounwind uwtable
define linkonce_odr hidden void @_Z3sethPh(i8 noundef zeroext %0, ptr noundef %1) #1 comdat {
  %3 = alloca i8, align 1
  %4 = alloca ptr, align 8
  store i8 %0, ptr %3, align 1
  store ptr %1, ptr %4, align 8
  %5 = load i8, ptr %3, align 1
  %6 = load ptr, ptr %4, align 8
  call void @_Z8set_formIXadL_Z10traceid_orhhEEEvhPh(i8 noundef zeroext %5, ptr noundef %6)
  ret void
}

; Function Attrs: mustprogress nounwind uwtable
define linkonce_odr hidden void @_Z8set_maskhPh(i8 noundef zeroext %0, ptr noundef %1) #1 comdat {
  %3 = alloca i8, align 1
  %4 = alloca ptr, align 8
  store i8 %0, ptr %3, align 1
  store ptr %1, ptr %4, align 8
  %5 = load i8, ptr %3, align 1
  %6 = load ptr, ptr %4, align 8
  call void @_Z12set_cas_formIXadL_Z11traceid_andhhEEEvhPVh(i8 noundef zeroext %5, ptr noundef %6)
  ret void
}

; Function Attrs: mustprogress nounwind uwtable
define linkonce_odr hidden noundef ptr @_Z17traceid_meta_byteI15ClassLoaderDataEPhPKT_(ptr noundef %0) #1 comdat {
  %2 = alloca ptr, align 8
  store ptr %0, ptr %2, align 8
  %3 = load ptr, ptr %2, align 8
  %4 = call noundef ptr @_ZNK15ClassLoaderData13trace_id_addrEv(ptr noundef nonnull align 8 dereferenceable(160) %3)
  %5 = call noundef ptr @_Z9meta_addrPm(ptr noundef %4)
  ret ptr %5
}

; Function Attrs: mustprogress nounwind uwtable
define internal noundef zeroext i1 @_ZL9unloadingv() #1 {
  %1 = load i8, ptr @_ZL13_class_unload, align 1
  %2 = trunc i8 %1 to i1
  ret i1 %2
}

; Function Attrs: mustprogress nounwind uwtable
define internal noundef zeroext i1 @_ZL10flushpointv() #1 {
  %1 = load i8, ptr @_ZL11_flushpoint, align 1
  %2 = trunc i8 %1 to i1
  ret i1 %2
}

; Function Attrs: mustprogress nounwind uwtable
define linkonce_odr hidden void @_ZN14JfrTraceIdBits10meta_storeI15ClassLoaderDataEEvhPKT_(i8 noundef zeroext %0, ptr noundef %1) #1 comdat align 2 {
  %3 = alloca i8, align 1
  %4 = alloca ptr, align 8
  store i8 %0, ptr %3, align 1
  store ptr %1, ptr %4, align 8
  %5 = load i8, ptr %3, align 1
  %6 = load ptr, ptr %4, align 8
  %7 = call noundef ptr @_Z17traceid_meta_byteI15ClassLoaderDataEPhPKT_(ptr noundef %6)
  call void @_Z3sethPh(i8 noundef zeroext %5, ptr noundef %7)
  ret void
}

; Function Attrs: mustprogress nounwind uwtable
define linkonce_odr hidden void @_ZN14JfrTraceIdBits15meta_mask_storeI15ClassLoaderDataEEvhPKT_(i8 noundef zeroext %0, ptr noundef %1) #1 comdat align 2 {
  %3 = alloca i8, align 1
  %4 = alloca ptr, align 8
  store i8 %0, ptr %3, align 1
  store ptr %1, ptr %4, align 8
  %5 = load i8, ptr %3, align 1
  %6 = load ptr, ptr %4, align 8
  %7 = call noundef ptr @_Z17traceid_meta_byteI15ClassLoaderDataEPhPKT_(ptr noundef %6)
  call void @_Z8set_maskhPh(i8 noundef zeroext %5, ptr noundef %7)
  ret void
}

; Function Attrs: mustprogress nounwind uwtable
define linkonce_odr hidden noundef zeroext i8 @_ZN15JfrTraceIdEpoch14this_epoch_bitEv() #1 comdat align 2 {
  %1 = load i8, ptr @_ZN15JfrTraceIdEpoch12_epoch_stateE, align 1
  %2 = trunc i8 %1 to i1
  %3 = select i1 %2, i32 2, i32 1
  %4 = trunc i32 %3 to i8
  ret i8 %4
}

; Function Attrs: mustprogress nounwind uwtable
define internal noundef zeroext i1 @_ZL13current_epochv() #1 {
  %1 = call noundef zeroext i1 @_ZL10flushpointv()
  br i1 %1, label %4, label %2

2:                                                ; preds = %0
  %3 = call noundef zeroext i1 @_ZL9unloadingv()
  br label %4

4:                                                ; preds = %2, %0
  %5 = phi i1 [ true, %0 ], [ %3, %2 ]
  ret i1 %5
}

; Function Attrs: mustprogress nounwind uwtable
define internal void @_ZL14set_serializedI15ClassLoaderDataEvPKT_(ptr noundef %0) #1 {
  %2 = alloca ptr, align 8
  store ptr %0, ptr %2, align 8
  %3 = call noundef zeroext i1 @_ZL13current_epochv()
  br i1 %3, label %4, label %10

4:                                                ; preds = %1
  %5 = call noundef zeroext i8 @_ZN15JfrTraceIdEpoch14this_epoch_bitEv()
  %6 = zext i8 %5 to i32
  %7 = xor i32 %6, -1
  %8 = trunc i32 %7 to i8
  %9 = load ptr, ptr %2, align 8
  call void @_ZN14JfrTraceIdBits15meta_mask_storeI15ClassLoaderDataEEvhPKT_(i8 noundef zeroext %8, ptr noundef %9)
  br label %10

10:                                               ; preds = %4, %1
  %11 = load ptr, ptr %2, align 8
  call void @_ZN14JfrTraceIdBits10meta_storeI15ClassLoaderDataEEvhPKT_(i8 noundef zeroext 16, ptr noundef %11)
  ret void
}

; Function Attrs: mustprogress nounwind uwtable
define hidden noundef i32 @_Z10write__cldP19JfrCheckpointWriterPKv(ptr noundef %0, ptr noundef %1) #1 {
  %3 = alloca ptr, align 8
  %4 = alloca ptr, align 8
  %5 = alloca ptr, align 8
  store ptr %0, ptr %3, align 8
  store ptr %1, ptr %4, align 8
  %6 = load ptr, ptr %4, align 8
  store ptr %6, ptr %5, align 8
  %7 = load ptr, ptr %5, align 8
  call void @_ZL14set_serializedI15ClassLoaderDataEvPKT_(ptr noundef %7)
  %8 = load ptr, ptr %3, align 8
  %9 = load ptr, ptr %5, align 8
  %10 = call noundef i32 @_ZL9write_cldP19JfrCheckpointWriterPK15ClassLoaderDatab(ptr noundef %8, ptr noundef %9, i1 noundef zeroext false)
  ret i32 %10
}